; ModuleID = 'source-C-CXX/51/1478.cpp'
source_filename = "source-C-CXX/51/1478.cpp"
target datalayout = "e-m:e-p270:32:32-p271:32:32-p272:64:64-i64:64-f80:128-n8:16:32:64-S128"
target triple = "x86_64-pc-linux-gnu"

%"class.std::ios_base::Init" = type { i8 }
%"class.std::basic_istream" = type { i32 (...)**, i64, %"class.std::basic_ios" }
%"class.std::basic_ios" = type { %"class.std::ios_base", %"class.std::basic_ostream"*, i8, i8, %"class.std::basic_streambuf"*, %"class.std::ctype"*, %"class.std::num_put"*, %"class.std::num_get"* }
%"class.std::ios_base" = type { i32 (...)**, i64, i64, i32, i32, i32, %"struct.std::ios_base::_Callback_list"*, %"struct.std::ios_base::_Words", [8 x %"struct.std::ios_base::_Words"], i32, %"struct.std::ios_base::_Words"*, %"class.std::locale" }
%"struct.std::ios_base::_Callback_list" = type { %"struct.std::ios_base::_Callback_list"*, void (i32, %"class.std::ios_base"*, i32)*, i32, i32 }
%"struct.std::ios_base::_Words" = type { i8*, i64 }
%"class.std::locale" = type { %"class.std::locale::_Impl"* }
%"class.std::locale::_Impl" = type { i32, %"class.std::locale::facet"**, i64, %"class.std::locale::facet"**, i8** }
%"class.std::locale::facet" = type <{ i32 (...)**, i32, [4 x i8] }>
%"class.std::basic_ostream" = type { i32 (...)**, %"class.std::basic_ios" }
%"class.std::basic_streambuf" = type { i32 (...)**, i8*, i8*, i8*, i8*, i8*, i8*, %"class.std::locale" }
%"class.std::ctype" = type <{ %"class.std::locale::facet.base", [4 x i8], %struct.__locale_struct*, i8, [7 x i8], i32*, i32*, i16*, i8, [256 x i8], [256 x i8], i8, [6 x i8] }>
%"class.std::locale::facet.base" = type <{ i32 (...)**, i32 }>
%struct.__locale_struct = type { [13 x %struct.__locale_data*], i16*, i32*, i32*, [13 x i8*] }
%struct.__locale_data = type opaque
%"class.std::num_put" = type { %"class.std::locale::facet.base", [4 x i8] }
%"class.std::num_get" = type { %"class.std::locale::facet.base", [4 x i8] }

@_ZStL8__ioinit = internal global %"class.std::ios_base::Init" zeroinitializer, align 1
@__dso_handle = external hidden global i8
@_ZSt3cin = external global %"class.std::basic_istream", align 8
@_ZSt4cout = external global %"class.std::basic_ostream", align 8
@.str = private unnamed_addr constant [2 x i8] c" \00", align 1
@llvm.global_ctors = appending global [1 x { i32, void ()*, i8* }] [{ i32, void ()*, i8* } { i32 65535, void ()* @_GLOBAL__sub_I_1478.cpp, i8* null }]

declare void @_ZNSt8ios_base4InitC1Ev(%"class.std::ios_base::Init"* nonnull align 1 dereferenceable(1)) unnamed_addr #0

; Function Attrs: nounwind
declare void @_ZNSt8ios_base4InitD1Ev(%"class.std::ios_base::Init"* nonnull align 1 dereferenceable(1)) unnamed_addr #1

; Function Attrs: nofree nounwind
declare i32 @__cxa_atexit(void (i8*)*, i8*, i8*) local_unnamed_addr #2

; Function Attrs: mustprogress norecurse sspstrong uwtable
define dso_local i32 @main() local_unnamed_addr #3 {
  %1 = alloca i32, align 4
  %2 = alloca i32, align 4
  %3 = bitcast i32* %1 to i8*
  call void @llvm.lifetime.start.p0i8(i64 4, i8* nonnull %3) #7
  %4 = bitcast i32* %2 to i8*
  call void @llvm.lifetime.start.p0i8(i64 4, i8* nonnull %4) #7
  %5 = call nonnull align 8 dereferenceable(16) %"class.std::basic_istream"* @_ZNSirsERi(%"class.std::basic_istream"* nonnull align 8 dereferenceable(16) @_ZSt3cin, i32* nonnull align 4 dereferenceable(4) %1)
  %6 = call nonnull align 8 dereferenceable(16) %"class.std::basic_istream"* @_ZNSirsERi(%"class.std::basic_istream"* nonnull align 8 dereferenceable(16) %5, i32* nonnull align 4 dereferenceable(4) %2)
  %7 = load i32, i32* %1, align 4, !tbaa !5
  %8 = zext i32 %7 to i64
  %9 = call i8* @llvm.stacksave()
  %10 = alloca i32, i64 %8, align 16
  %11 = load i32, i32* %1, align 4, !tbaa !5
  %12 = icmp sgt i32 %11, 0
  br i1 %12, label %52, label %13

13:                                               ; preds = %52, %0
  %14 = phi i32 [ %11, %0 ], [ %57, %52 ]
  %15 = load i32, i32* %2, align 4, !tbaa !5
  %16 = add i32 %14, -1
  %17 = sext i32 %16 to i64
  %18 = getelementptr inbounds i32, i32* %10, i64 %17
  %19 = icmp sgt i32 %15, 0
  %20 = icmp sgt i32 %14, 1
  %21 = select i1 %19, i1 %20, i1 false
  br i1 %21, label %22, label %60

22:                                               ; preds = %13
  %23 = zext i32 %16 to i64
  %24 = and i64 %23, 1
  %25 = icmp eq i32 %16, 1
  %26 = and i64 %23, 4294967294
  %27 = icmp eq i64 %24, 0
  br label %28

28:                                               ; preds = %22, %49
  %29 = phi i32 [ %50, %49 ], [ 0, %22 ]
  br i1 %25, label %43, label %30

30:                                               ; preds = %28, %30
  %31 = phi i64 [ %40, %30 ], [ 0, %28 ]
  %32 = phi i64 [ %41, %30 ], [ %26, %28 ]
  %33 = load i32, i32* %18, align 4, !tbaa !5
  %34 = getelementptr inbounds i32, i32* %10, i64 %31
  %35 = load i32, i32* %34, align 8, !tbaa !5
  store i32 %35, i32* %18, align 4, !tbaa !5
  store i32 %33, i32* %34, align 8, !tbaa !5
  %36 = or i64 %31, 1
  %37 = load i32, i32* %18, align 4, !tbaa !5
  %38 = getelementptr inbounds i32, i32* %10, i64 %36
  %39 = load i32, i32* %38, align 4, !tbaa !5
  store i32 %39, i32* %18, align 4, !tbaa !5
  store i32 %37, i32* %38, align 4, !tbaa !5
  %40 = add nuw nsw i64 %31, 2
  %41 = add i64 %32, -2
  %42 = icmp eq i64 %41, 0
  br i1 %42, label %43, label %30, !llvm.loop !9

43:                                               ; preds = %30, %28
  %44 = phi i64 [ 0, %28 ], [ %40, %30 ]
  br i1 %27, label %49, label %45

45:                                               ; preds = %43
  %46 = load i32, i32* %18, align 4, !tbaa !5
  %47 = getelementptr inbounds i32, i32* %10, i64 %44
  %48 = load i32, i32* %47, align 4, !tbaa !5
  store i32 %48, i32* %18, align 4, !tbaa !5
  store i32 %46, i32* %47, align 4, !tbaa !5
  br label %49

49:                                               ; preds = %43, %45
  %50 = add nuw nsw i32 %29, 1
  %51 = icmp eq i32 %50, %15
  br i1 %51, label %60, label %28, !llvm.loop !11

52:                                               ; preds = %0, %52
  %53 = phi i64 [ %56, %52 ], [ 0, %0 ]
  %54 = getelementptr inbounds i32, i32* %10, i64 %53
  %55 = call nonnull align 8 dereferenceable(16) %"class.std::basic_istream"* @_ZNSirsERi(%"class.std::basic_istream"* nonnull align 8 dereferenceable(16) @_ZSt3cin, i32* nonnull align 4 dereferenceable(4) %54)
  %56 = add nuw nsw i64 %53, 1
  %57 = load i32, i32* %1, align 4, !tbaa !5
  %58 = sext i32 %57 to i64
  %59 = icmp slt i64 %56, %58
  br i1 %59, label %52, label %13, !llvm.loop !12

60:                                               ; preds = %49, %13
  %61 = icmp sgt i32 %14, 0
  br i1 %61, label %63, label %62

62:                                               ; preds = %75, %60
  call void @llvm.stackrestore(i8* %9)
  call void @llvm.lifetime.end.p0i8(i64 4, i8* nonnull %4) #7
  call void @llvm.lifetime.end.p0i8(i64 4, i8* nonnull %3) #7
  ret i32 0

63:                                               ; preds = %60, %75
  %64 = phi i64 [ %77, %75 ], [ 0, %60 ]
  %65 = getelementptr inbounds i32, i32* %10, i64 %64
  %66 = load i32, i32* %65, align 4, !tbaa !5
  %67 = call nonnull align 8 dereferenceable(8) %"class.std::basic_ostream"* @_ZNSolsEi(%"class.std::basic_ostream"* nonnull align 8 dereferenceable(8) @_ZSt4cout, i32 %66)
  %68 = load i32, i32* %1, align 4, !tbaa !5
  %69 = add nsw i32 %68, -1
  %70 = zext i32 %69 to i64
  %71 = icmp eq i64 %64, %70
  br i1 %71, label %75, label %72

72:                                               ; preds = %63
  %73 = call nonnull align 8 dereferenceable(8) %"class.std::basic_ostream"* @_ZSt16__ostream_insertIcSt11char_traitsIcEERSt13basic_ostreamIT_T0_ES6_PKS3_l(%"class.std::basic_ostream"* nonnull align 8 dereferenceable(8) @_ZSt4cout, i8* nonnull getelementptr inbounds ([2 x i8], [2 x i8]* @.str, i64 0, i64 0), i64 1)
  %74 = load i32, i32* %1, align 4, !tbaa !5
  br label %75

75:                                               ; preds = %63, %72
  %76 = phi i32 [ %68, %63 ], [ %74, %72 ]
  %77 = add nuw nsw i64 %64, 1
  %78 = sext i32 %76 to i64
  %79 = icmp slt i64 %77, %78
  br i1 %79, label %63, label %62, !llvm.loop !13
}

; Function Attrs: argmemonly mustprogress nofree nosync nounwind willreturn
declare void @llvm.lifetime.start.p0i8(i64 immarg, i8* nocapture) #4

declare nonnull align 8 dereferenceable(16) %"class.std::basic_istream"* @_ZNSirsERi(%"class.std::basic_istream"* nonnull align 8 dereferenceable(16), i32* nonnull align 4 dereferenceable(4)) local_unnamed_addr #0

; Function Attrs: mustprogress nofree nosync nounwind willreturn
declare i8* @llvm.stacksave() #5

; Function Attrs: argmemonly mustprogress nofree nosync nounwind willreturn
declare void @llvm.lifetime.end.p0i8(i64 immarg, i8* nocapture) #4

declare nonnull align 8 dereferenceable(8) %"class.std::basic_ostream"* @_ZNSolsEi(%"class.std::basic_ostream"* nonnull align 8 dereferenceable(8), i32) local_unnamed_addr #0

; Function Attrs: mustprogress nofree nosync nounwind willreturn
declare void @llvm.stackrestore(i8*) #5

declare nonnull align 8 dereferenceable(8) %"class.std::basic_ostream"* @_ZSt16__ostream_insertIcSt11char_traitsIcEERSt13basic_ostreamIT_T0_ES6_PKS3_l(%"class.std::basic_ostream"* nonnull align 8 dereferenceable(8), i8*, i64) local_unnamed_addr #0

; Function Attrs: sspstrong uwtable
define internal void @_GLOBAL__sub_I_1478.cpp() #6 section ".text.startup" {
  tail call void @_ZNSt8ios_base4InitC1Ev(%"class.std::ios_base::Init"* nonnull align 1 dereferenceable(1) @_ZStL8__ioinit)
  %1 = tail call i32 @__cxa_atexit(void (i8*)* bitcast (void (%"class.std::ios_base::Init"*)* @_ZNSt8ios_base4InitD1Ev to void (i8*)*), i8* getelementptr inbounds (%"class.std::ios_base::Init", %"class.std::ios_base::Init"* @_ZStL8__ioinit, i64 0, i32 0), i8* nonnull @__dso_handle) #7
  ret void
}


!llvm.module.flags = !{!0, !1, !2, !3}
!llvm.ident = !{!4}

!0 = !{i32 1, !"wchar_size", i32 4}
!1 = !{i32 7, !"PIC Level", i32 2}
!2 = !{i32 7, !"PIE Level", i32 2}
!3 = !{i32 7, !"uwtable", i32 1}
!4 = !{!"clang version 13.0.0"}
!5 = !{!6, !6, i64 0}
!6 = !{!"int", !7, i64 0}
!7 = !{!"omnipotent char", !8, i64 0}
!8 = !{!"Simple C++ TBAA"}
!9 = distinct !{!9, !10}
!10 = !{!"llvm.loop.mustprogress"}
!11 = distinct !{!11, !10}
!12 = distinct !{!12, !10}
!13 = distinct !{!13, !10}
